target datalayout = "e-m:e-p270:32:32-p271:32:32-p272:64:64-i64:64-i128:128-f80:128-n8:16:32:64-S128"
target triple = "x86_64-pc-linux-gnu"

%struct.nstime_t = type { i64, i32 }
%struct._rpc_call_info_value = type { i32, i32, i32, i32, i32, i32, i32, i32, i32, i8, %struct.nstime_t, ptr }
%struct._packet_info = type { ptr, ptr, i32, i32, %struct.nstime_t, %struct.nstime_t, %struct.nstime_t, i8, ptr, ptr, ptr, ptr, %struct._address, %struct._address, %struct._address, %struct._address, %struct._address, %struct._address, i32, ptr, i8, [3 x i8], %struct.anon, i32, i32, i32, i32, ptr, i8, ptr, ptr, i16, i16, i32, i32, i16, i32, i32, ptr, ptr, ptr, i8, i8, i16, i16, i16, i32, i16, i16, ptr, ptr, ptr, ptr, ptr, i32, i32 }
%struct._address = type { i32, i32, ptr, ptr }
%struct.anon = type { i8, [3 x i8] }
%struct._frame_data = type <{ i32, i32, i32, i32, i32, [4 x i8], i64, ptr, ptr, ptr, i8, i16, [5 x i8], %struct.nstime_t, %struct.nstime_t, i32, i32 }>
%struct._nlm_msg_res_matched_data = type { i32, i32, %struct.nstime_t }

@hf_nlm_cookie = internal global i32 0, align 4
@hf_nlm_stat = internal global i32 0, align 4
@hf_nlm_request_in = internal global i32 0, align 4
@hf_nlm_time = internal global i32 0, align 4
@nlm_match_msgres = internal global i8 0, align 1
@nlm_msg_res_matched = internal global ptr null, align 8
@nfs_fhandle_reqrep_matching = external global i8, align 1
@.str.116 = private unnamed_addr constant [4 x i8] c" %s\00", align 1
@.str.117 = private unnamed_addr constant [20 x i8] c"Unknown Status (%u)\00", align 1

; Function Attrs: null_pointer_is_valid sspstrong uwtable
define internal void @nlm_match_fhandle_reply(ptr noundef %0, ptr noundef %1) #0 {
  %3 = alloca ptr, align 8
  %4 = alloca ptr, align 8
  %5 = alloca ptr, align 8
  store ptr %0, ptr %3, align 8
  store ptr %1, ptr %4, align 8
  call void @llvm.lifetime.start.p0(i64 8, ptr %5) #8
  %6 = load ptr, ptr @nlm_msg_res_matched, align 8
  %7 = load ptr, ptr %3, align 8
  %8 = getelementptr inbounds nuw %struct._packet_info, ptr %7, i32 0, i32 3
  %9 = load i32, ptr %8, align 4
  %10 = zext i32 %9 to i64
  %11 = inttoptr i64 %10 to ptr
  %12 = call ptr @wmem_map_lookup(ptr noundef %6, ptr noundef %11)
  store ptr %12, ptr %5, align 8
  %13 = load ptr, ptr %5, align 8
  %14 = icmp ne ptr %13, null
  br i1 %14, label %15, label %26

15:                                               ; preds = %2
  %16 = load ptr, ptr %5, align 8
  %17 = getelementptr inbounds nuw %struct._nlm_msg_res_matched_data, ptr %16, i32 0, i32 1
  %18 = load i32, ptr %17, align 4
  %19 = icmp ne i32 %18, 0
  br i1 %19, label %20, label %26

20:                                               ; preds = %15
  %21 = load ptr, ptr %3, align 8
  %22 = load ptr, ptr %4, align 8
  %23 = load ptr, ptr %5, align 8
  %24 = getelementptr inbounds nuw %struct._nlm_msg_res_matched_data, ptr %23, i32 0, i32 0
  %25 = load i32, ptr %24, align 8
  call void @dissect_fhandle_hidden(ptr noundef %21, ptr noundef %22, i32 noundef %25)
  br label %26

26:                                               ; preds = %20, %15, %2
  call void @llvm.lifetime.end.p0(i64 8, ptr %5) #8
  ret void
}

; Function Attrs: null_pointer_is_valid sspstrong uwtable
define internal void @nlm_print_msgres_reply(ptr noundef %0, ptr noundef %1, ptr noundef %2) #0 {
  %4 = alloca ptr, align 8
  %5 = alloca ptr, align 8
  %6 = alloca ptr, align 8
  %7 = alloca ptr, align 8
  %8 = alloca %struct.nstime_t, align 8
  store ptr %0, ptr %4, align 8
  store ptr %1, ptr %5, align 8
  store ptr %2, ptr %6, align 8
  call void @llvm.lifetime.start.p0(i64 8, ptr %7) #8
  %9 = load ptr, ptr @nlm_msg_res_matched, align 8
  %10 = load ptr, ptr %4, align 8
  %11 = getelementptr inbounds nuw %struct._packet_info, ptr %10, i32 0, i32 3
  %12 = load i32, ptr %11, align 4
  %13 = zext i32 %12 to i64
  %14 = inttoptr i64 %13 to ptr
  %15 = call ptr @wmem_map_lookup(ptr noundef %9, ptr noundef %14)
  store ptr %15, ptr %7, align 8
  %16 = load ptr, ptr %7, align 8
  %17 = icmp ne ptr %16, null
  br i1 %17, label %18, label %34

18:                                               ; preds = %3
  call void @llvm.lifetime.start.p0(i64 16, ptr %8) #8
  %19 = load ptr, ptr %5, align 8
  %20 = load i32, ptr @hf_nlm_request_in, align 4
  %21 = load ptr, ptr %6, align 8
  %22 = load ptr, ptr %7, align 8
  %23 = getelementptr inbounds nuw %struct._nlm_msg_res_matched_data, ptr %22, i32 0, i32 0
  %24 = load i32, ptr %23, align 8
  %25 = call ptr @proto_tree_add_uint(ptr noundef %19, i32 noundef %20, ptr noundef %21, i32 noundef 0, i32 noundef 0, i32 noundef %24)
  %26 = load ptr, ptr %4, align 8
  %27 = getelementptr inbounds nuw %struct._packet_info, ptr %26, i32 0, i32 4
  %28 = load ptr, ptr %7, align 8
  %29 = getelementptr inbounds nuw %struct._nlm_msg_res_matched_data, ptr %28, i32 0, i32 2
  call void @nstime_delta(ptr noundef %8, ptr noundef %27, ptr noundef %29)
  %30 = load ptr, ptr %5, align 8
  %31 = load i32, ptr @hf_nlm_time, align 4
  %32 = load ptr, ptr %6, align 8
  %33 = call ptr @proto_tree_add_time(ptr noundef %30, i32 noundef %31, ptr noundef %32, i32 noundef 0, i32 noundef 0, ptr noundef %8)
  call void @llvm.lifetime.end.p0(i64 16, ptr %8) #8
  br label %34

34:                                               ; preds = %18, %3
  call void @llvm.lifetime.end.p0(i64 8, ptr %7) #8
  ret void
}

; Function Attrs: null_pointer_is_valid sspstrong uwtable
define internal i32 @dissect_nlm_gen_reply(ptr noundef %0, ptr noundef %1, ptr noundef %2, ptr noundef %3) #0 {
  %5 = alloca ptr, align 8
  %6 = alloca ptr, align 8
  %7 = alloca ptr, align 8
  %8 = alloca ptr, align 8
  %9 = alloca i32, align 4
  %10 = alloca i32, align 4
  %11 = alloca ptr, align 8
  store ptr %0, ptr %5, align 8
  store ptr %1, ptr %6, align 8
  store ptr %2, ptr %7, align 8
  store ptr %3, ptr %8, align 8
  call void @llvm.lifetime.start.p0(i64 4, ptr %9) #8
  call void @llvm.lifetime.start.p0(i64 4, ptr %10) #8
  store i32 0, ptr %10, align 4
  %12 = load i8, ptr @nlm_match_msgres, align 1, !range !8, !noundef !9
  %13 = trunc i8 %12 to i1
  br i1 %13, label %14, label %61

14:                                               ; preds = %4
  call void @llvm.lifetime.start.p0(i64 8, ptr %11) #8
  %15 = load ptr, ptr %8, align 8
  store ptr %15, ptr %11, align 8
  %16 = load ptr, ptr %11, align 8
  %17 = getelementptr inbounds nuw %struct._rpc_call_info_value, ptr %16, i32 0, i32 4
  %18 = load i32, ptr %17, align 8
  %19 = icmp eq i32 %18, 12
  br i1 %19, label %35, label %20

20:                                               ; preds = %14
  %21 = load ptr, ptr %11, align 8
  %22 = getelementptr inbounds nuw %struct._rpc_call_info_value, ptr %21, i32 0, i32 4
  %23 = load i32, ptr %22, align 8
  %24 = icmp eq i32 %23, 13
  br i1 %24, label %35, label %25

25:                                               ; preds = %20
  %26 = load ptr, ptr %11, align 8
  %27 = getelementptr inbounds nuw %struct._rpc_call_info_value, ptr %26, i32 0, i32 4
  %28 = load i32, ptr %27, align 8
  %29 = icmp eq i32 %28, 14
  br i1 %29, label %35, label %30

30:                                               ; preds = %25
  %31 = load ptr, ptr %11, align 8
  %32 = getelementptr inbounds nuw %struct._rpc_call_info_value, ptr %31, i32 0, i32 4
  %33 = load i32, ptr %32, align 8
  %34 = icmp eq i32 %33, 15
  br i1 %34, label %35, label %60

35:                                               ; preds = %30, %25, %20, %14
  %36 = load ptr, ptr %6, align 8
  %37 = getelementptr inbounds nuw %struct._packet_info, ptr %36, i32 0, i32 8
  %38 = load ptr, ptr %37, align 8
  %39 = getelementptr inbounds nuw %struct._frame_data, ptr %38, i32 0, i32 11
  %40 = load i16, ptr %39, align 1
  %41 = lshr i16 %40, 3
  %42 = and i16 %41, 1
  %43 = zext i16 %42 to i32
  %44 = icmp ne i32 %43, 0
  br i1 %44, label %49, label %45

45:                                               ; preds = %35
  %46 = load ptr, ptr %6, align 8
  %47 = load ptr, ptr %5, align 8
  %48 = load i32, ptr %10, align 4
  call void @nlm_register_unmatched_res(ptr noundef %46, ptr noundef %47, i32 noundef %48)
  br label %53

49:                                               ; preds = %35
  %50 = load ptr, ptr %6, align 8
  %51 = load ptr, ptr %7, align 8
  %52 = load ptr, ptr %5, align 8
  call void @nlm_print_msgres_reply(ptr noundef %50, ptr noundef %51, ptr noundef %52)
  br label %53

53:                                               ; preds = %49, %45
  %54 = load i8, ptr @nfs_fhandle_reqrep_matching, align 1, !range !8, !noundef !9
  %55 = trunc i8 %54 to i1
  br i1 %55, label %56, label %59

56:                                               ; preds = %53
  %57 = load ptr, ptr %6, align 8
  %58 = load ptr, ptr %7, align 8
  call void @nlm_match_fhandle_reply(ptr noundef %57, ptr noundef %58)
  br label %59

59:                                               ; preds = %56, %53
  br label %60

60:                                               ; preds = %59, %30
  call void @llvm.lifetime.end.p0(i64 8, ptr %11) #8
  br label %61

61:                                               ; preds = %60, %4
  %62 = load ptr, ptr %5, align 8
  %63 = load ptr, ptr %7, align 8
  %64 = load i32, ptr @hf_nlm_cookie, align 4
  %65 = load i32, ptr %10, align 4
  %66 = call i32 @dissect_rpc_data(ptr noundef %62, ptr noundef %63, i32 noundef %64, i32 noundef %65)
  store i32 %66, ptr %10, align 4
  %67 = load ptr, ptr %5, align 8
  %68 = load i32, ptr %10, align 4
  %69 = call i32 @tvb_get_ntohl(ptr noundef %67, i32 noundef %68)
  store i32 %69, ptr %9, align 4
  %70 = load i32, ptr %9, align 4
  %71 = icmp ne i32 %70, 0
  br i1 %71, label %72, label %78

72:                                               ; preds = %61
  %73 = load ptr, ptr %6, align 8
  %74 = getelementptr inbounds nuw %struct._packet_info, ptr %73, i32 0, i32 1
  %75 = load ptr, ptr %74, align 8
  %76 = load i32, ptr %9, align 4
  %77 = call ptr @val_to_str(i32 noundef %76, ptr noundef @names_nlm_stats, ptr noundef @.str.117)
  call void (ptr, i32, ptr, ...) @col_append_fstr(ptr noundef %75, i32 noundef 25, ptr noundef @.str.116, ptr noundef %77)
  br label %78

78:                                               ; preds = %72, %61
  %79 = load ptr, ptr %5, align 8
  %80 = load ptr, ptr %7, align 8
  %81 = load i32, ptr @hf_nlm_stat, align 4
  %82 = load i32, ptr %10, align 4
  %83 = call i32 @dissect_rpc_uint32(ptr noundef %79, ptr noundef %80, i32 noundef %81, i32 noundef %82)
  store i32 %83, ptr %10, align 4
  %84 = load i32, ptr %10, align 4
  call void @llvm.lifetime.end.p0(i64 4, ptr %10) #8
  call void @llvm.lifetime.end.p0(i64 4, ptr %9) #8
  ret i32 %84
}