; Function Attrs: null_pointer_is_valid sspstrong uwtable
define internal i32 @dissect_nlm_gen_reply(ptr noundef %0, ptr noundef %1, ptr noundef %2, ptr noundef readonly captures(none) %3) #0 {
  %5 = alloca %struct.nstime_t, align 8
  %6 = load i8, ptr @nlm_match_msgres, align 1, !range !8, !noundef !9
  %7 = trunc nuw i8 %6 to i1
  br i1 %7, label %8, label %nlm_match_fhandle_reply.exit

8:                                                ; preds = %4
  %9 = getelementptr inbounds nuw i8, ptr %3, i64 16
  %10 = load i32, ptr %9, align 8
  %11 = and i32 %10, -4
  %switch = icmp eq i32 %11, 12
  br i1 %switch, label %12, label %nlm_match_fhandle_reply.exit

12:                                               ; preds = %8
  %13 = getelementptr inbounds nuw i8, ptr %1, i64 80
  %14 = load ptr, ptr %13, align 8
  %15 = getelementptr inbounds nuw i8, ptr %14, i64 57
  %16 = load i16, ptr %15, align 1
  %17 = and i16 %16, 8
  %.not = icmp eq i16 %17, 0
  br i1 %.not, label %18, label %19

18:                                               ; preds = %12
  tail call fastcc void @nlm_register_unmatched_res(ptr noundef %1, ptr noundef %0)
  br label %nlm_print_msgres_reply.exit

19:                                               ; preds = %12
  %20 = load ptr, ptr @nlm_msg_res_matched, align 8
  %21 = getelementptr inbounds nuw i8, ptr %1, i64 20
  %22 = load i32, ptr %21, align 4
  %23 = zext i32 %22 to i64
  %24 = inttoptr i64 %23 to ptr
  %25 = tail call ptr @wmem_map_lookup(ptr noundef %20, ptr noundef %24)
  %.not.i = icmp eq ptr %25, null
  br i1 %.not.i, label %nlm_print_msgres_reply.exit, label %26

26:                                               ; preds = %19
  call void @llvm.lifetime.start.p0(i64 16, ptr nonnull %5) #10
  %27 = load i32, ptr @hf_nlm_request_in, align 4
  %28 = load i32, ptr %25, align 8
  %29 = tail call ptr @proto_tree_add_uint(ptr noundef %2, i32 noundef %27, ptr noundef %0, i32 noundef 0, i32 noundef 0, i32 noundef %28)
  %30 = getelementptr inbounds nuw i8, ptr %1, i64 24
  %31 = getelementptr inbounds nuw i8, ptr %25, i64 8
  call void @nstime_delta(ptr noundef nonnull %5, ptr noundef nonnull %30, ptr noundef nonnull %31)
  %32 = load i32, ptr @hf_nlm_time, align 4
  %33 = call ptr @proto_tree_add_time(ptr noundef %2, i32 noundef %32, ptr noundef %0, i32 noundef 0, i32 noundef 0, ptr noundef nonnull %5)
  call void @llvm.lifetime.end.p0(i64 16, ptr nonnull %5) #10
  br label %nlm_print_msgres_reply.exit

nlm_print_msgres_reply.exit:                      ; preds = %26, %19, %18
  %34 = load i8, ptr @nfs_fhandle_reqrep_matching, align 1, !range !8, !noundef !9
  %35 = trunc nuw i8 %34 to i1
  br i1 %35, label %36, label %nlm_match_fhandle_reply.exit

36:                                               ; preds = %nlm_print_msgres_reply.exit
  %37 = load ptr, ptr @nlm_msg_res_matched, align 8
  %38 = getelementptr inbounds nuw i8, ptr %1, i64 20
  %39 = load i32, ptr %38, align 4
  %40 = zext i32 %39 to i64
  %41 = inttoptr i64 %40 to ptr
  %42 = call ptr @wmem_map_lookup(ptr noundef %37, ptr noundef %41)
  %.not.i27 = icmp eq ptr %42, null
  br i1 %.not.i27, label %nlm_match_fhandle_reply.exit, label %43

43:                                               ; preds = %36
  %44 = getelementptr inbounds nuw i8, ptr %42, i64 4
  %45 = load i32, ptr %44, align 4
  %.not6.i = icmp eq i32 %45, 0
  br i1 %.not6.i, label %nlm_match_fhandle_reply.exit, label %46

46:                                               ; preds = %43
  %47 = load i32, ptr %42, align 8
  call void @dissect_fhandle_hidden(ptr noundef %1, ptr noundef %2, i32 noundef %47)
  br label %nlm_match_fhandle_reply.exit

nlm_match_fhandle_reply.exit:                     ; preds = %46, %43, %36, %8, %nlm_print_msgres_reply.exit, %4
  %48 = load i32, ptr @hf_nlm_cookie, align 4
  %49 = call i32 @dissect_rpc_data(ptr noundef %0, ptr noundef %2, i32 noundef %48, i32 noundef 0)
  %50 = call i32 @tvb_get_ntohl(ptr noundef %0, i32 noundef %49)
  %.not26 = icmp eq i32 %50, 0
  br i1 %.not26, label %55, label %51

51:                                               ; preds = %nlm_match_fhandle_reply.exit
  %52 = getelementptr inbounds nuw i8, ptr %1, i64 8
  %53 = load ptr, ptr %52, align 8
  %54 = call ptr @val_to_str(i32 noundef %50, ptr noundef nonnull @names_nlm_stats, ptr noundef nonnull @.str.117)
  call void (ptr, i32, ptr, ...) @col_append_fstr(ptr noundef %53, i32 noundef 25, ptr noundef nonnull @.str.116, ptr noundef %54)
  br label %55

55:                                               ; preds = %51, %nlm_match_fhandle_reply.exit
  %56 = load i32, ptr @hf_nlm_stat, align 4
  %57 = call i32 @dissect_rpc_uint32(ptr noundef %0, ptr noundef %2, i32 noundef %56, i32 noundef %49)
  ret i32 %57
}